---
triple:          'arm64-apple-darwin'
binary-path:     '/Users/joeypeterson/Desktop/sinewave_cpp/index'
relocations:
  - { offsetInCU: 0x4C88, offset: 0x4C88, size: 0x8, addend: 0x0, symName: __ZNSt3__124__put_character_sequenceB8ue170006IcNS_11char_traitsIcEEEERNS_13basic_ostreamIT_T0_EES7_PKS4_m, symObjAddr: 0x2138, symBinAddr: 0x100004BB8, symSize: 0x1EC }
  - { offsetInCU: 0x7043, offset: 0x7043, size: 0x8, addend: 0x0, symName: __ZNSt3__1lsB8ue170006INS_11char_traitsIcEEEERNS_13basic_ostreamIcT_EES6_PKc, symObjAddr: 0xB98, symBinAddr: 0x100003618, symSize: 0x48 }
  - { offsetInCU: 0x7089, offset: 0x7089, size: 0x8, addend: 0x0, symName: __ZNSt3__14endlB8ue170006IcNS_11char_traitsIcEEEERNS_13basic_ostreamIT_T0_EES7_, symObjAddr: 0xC0C, symBinAddr: 0x10000368C, symSize: 0x58 }
  - { offsetInCU: 0x70C9, offset: 0x70C9, size: 0x8, addend: 0x0, symName: __ZNSt3__1mlB8ue170006IfEENS_7complexIT_EERKS2_RKS3_, symObjAddr: 0xCA0, symBinAddr: 0x100003720, symSize: 0x44 }
  - { offsetInCU: 0x711E, offset: 0x711E, size: 0x8, addend: 0x0, symName: __ZNSt3__1lsB8ue170006IfcNS_11char_traitsIcEEEERNS_13basic_ostreamIT0_T1_EES7_RKNS_7complexIT_EE, symObjAddr: 0xDF8, symBinAddr: 0x100003878, symSize: 0x1FC }
  - { offsetInCU: 0x7186, offset: 0x7186, size: 0x8, addend: 0x0, symName: __ZNSt3__1mlB8ue170006IfEENS_7complexIT_EERKS3_S5_, symObjAddr: 0x104C, symBinAddr: 0x100003ACC, symSize: 0x3C8 }
  - { offsetInCU: 0x7A99, offset: 0x7A99, size: 0x8, addend: 0x0, symName: __ZNSt3__112__to_addressB8ue170006INS_7complexIfEEEEPT_S4_, symObjAddr: 0x1F4C, symBinAddr: 0x1000049CC, symSize: 0x14 }
  - { offsetInCU: 0x7ACE, offset: 0x7ACE, size: 0x8, addend: 0x0, symName: __ZNSt3__119__libcpp_deallocateB8ue170006EPvmm, symObjAddr: 0x2024, symBinAddr: 0x100004AA4, symSize: 0x30 }
  - { offsetInCU: 0x7B16, offset: 0x7B16, size: 0x8, addend: 0x0, symName: __ZNSt3__127__do_deallocate_handle_sizeB8ue170006IJEEEvPvmDpT_, symObjAddr: 0x2054, symBinAddr: 0x100004AD4, symSize: 0x28 }
  - { offsetInCU: 0x7B54, offset: 0x7B54, size: 0x8, addend: 0x0, symName: __ZNSt3__124__libcpp_operator_deleteB8ue170006IJPvEEEvDpT_, symObjAddr: 0x207C, symBinAddr: 0x100004AFC, symSize: 0x24 }
  - { offsetInCU: 0x7B89, offset: 0x7B89, size: 0x8, addend: 0x0, symName: __ZNSt3__116__pad_and_outputB8ue170006IcNS_11char_traitsIcEEEENS_19ostreambuf_iteratorIT_T0_EES6_PKS4_S8_S8_RNS_8ios_baseES4_, symObjAddr: 0x2374, symBinAddr: 0x100004DF4, symSize: 0x240 }
  - { offsetInCU: 0x7C58, offset: 0x7C58, size: 0x8, addend: 0x0, symName: __ZNSt3__112__to_addressB8ue170006IKcEEPT_S3_, symObjAddr: 0x28DC, symBinAddr: 0x10000535C, symSize: 0x14 }
  - { offsetInCU: 0x7CC0, offset: 0x7CC0, size: 0x8, addend: 0x0, symName: __ZNSt3__19use_facetB8ue170006INS_5ctypeIcEEEERKT_RKNS_6localeE, symObjAddr: 0x2B5C, symBinAddr: 0x1000055DC, symSize: 0x2C }
  - { offsetInCU: 0x818D, offset: 0x818D, size: 0x8, addend: 0x0, symName: __ZNSt3__118__constexpr_strlenB8ue170006EPKc, symObjAddr: 0x2BF4, symBinAddr: 0x100005674, symSize: 0x24 }
  - { offsetInCU: 0x81B9, offset: 0x81B9, size: 0x8, addend: 0x0, symName: __ZNSt3__13maxB8ue170006ImEERKT_S3_S3_, symObjAddr: 0x3208, symBinAddr: 0x100005C88, symSize: 0x2C }
  - { offsetInCU: 0x81FC, offset: 0x81FC, size: 0x8, addend: 0x0, symName: __ZNSt3__13minB8ue170006ImEERKT_S3_S3_, symObjAddr: 0x3234, symBinAddr: 0x100005CB4, symSize: 0x2C }
  - { offsetInCU: 0x8440, offset: 0x8440, size: 0x8, addend: 0x0, symName: __ZNSt3__13minB8ue170006ImNS_6__lessIvvEEEERKT_S5_S5_T0_, symObjAddr: 0x32C0, symBinAddr: 0x100005D40, symSize: 0x54 }
  - { offsetInCU: 0x84DF, offset: 0x84DF, size: 0x8, addend: 0x0, symName: __ZNSt3__120__throw_length_errorB8ue170006EPKc, symObjAddr: 0x339C, symBinAddr: 0x100005E1C, symSize: 0x64 }
  - { offsetInCU: 0x8509, offset: 0x8509, size: 0x8, addend: 0x0, symName: __ZNSt3__13maxB8ue170006ImNS_6__lessIvvEEEERKT_S5_S5_T0_, symObjAddr: 0x3480, symBinAddr: 0x100005F00, symSize: 0x54 }
  - { offsetInCU: 0x8563, offset: 0x8563, size: 0x8, addend: 0x0, symName: __ZNSt3__119__allocate_at_leastB8ue170006INS_9allocatorINS_7complexIfEEEEEENS_19__allocation_resultINS_16allocator_traitsIT_E7pointerEEERS7_m, symObjAddr: 0x35E4, symBinAddr: 0x100006064, symSize: 0x40 }
  - { offsetInCU: 0x85A6, offset: 0x85A6, size: 0x8, addend: 0x0, symName: __ZNSt3__117__libcpp_allocateB8ue170006Emm, symObjAddr: 0x3768, symBinAddr: 0x1000061E8, symSize: 0x28 }
  - { offsetInCU: 0x85E3, offset: 0x85E3, size: 0x8, addend: 0x0, symName: __ZNSt3__121__libcpp_operator_newB8ue170006IJmEEEPvDpT_, symObjAddr: 0x3790, symBinAddr: 0x100006210, symSize: 0x24 }
  - { offsetInCU: 0x861C, offset: 0x861C, size: 0x8, addend: 0x0, symName: __ZNSt3__142__uninitialized_allocator_move_if_noexceptB8ue170006INS_9allocatorINS_7complexIfEEEENS_16reverse_iteratorIPS3_EES7_S3_vEET1_RT_T0_SB_S8_, symObjAddr: 0x3818, symBinAddr: 0x100006298, symSize: 0x78 }
  - { offsetInCU: 0x8699, offset: 0x8699, size: 0x8, addend: 0x0, symName: __ZNSt3__14swapB8ue170006IPNS_7complexIfEEEENS_9enable_ifIXaasr21is_move_constructibleIT_EE5valuesr18is_move_assignableIS5_EE5valueEvE4typeERS5_S8_, symObjAddr: 0x38DC, symBinAddr: 0x10000635C, symSize: 0x3C }
  - { offsetInCU: 0x86EA, offset: 0x86EA, size: 0x8, addend: 0x0, symName: __ZNSt3__14moveB8ue170006INS_16reverse_iteratorIPNS_7complexIfEEEES5_EET0_T_S7_S6_, symObjAddr: 0x39C4, symBinAddr: 0x100006444, symSize: 0x78 }
  - { offsetInCU: 0x8744, offset: 0x8744, size: 0x8, addend: 0x0, symName: __ZNSt3__16__moveB8ue170006INS_17_ClassicAlgPolicyENS_16reverse_iteratorIPNS_7complexIfEEEES6_S6_EENS_4pairIT0_T2_EES8_T1_S9_, symObjAddr: 0x3A3C, symBinAddr: 0x1000064BC, symSize: 0x64 }
  - { offsetInCU: 0x87B0, offset: 0x87B0, size: 0x8, addend: 0x0, symName: __ZNSt3__123__dispatch_copy_or_moveB8ue170006INS_17_ClassicAlgPolicyENS_11__move_loopIS1_EENS_14__move_trivialENS_16reverse_iteratorIPNS_7complexIfEEEES9_S9_EENS_4pairIT2_T4_EESB_T3_SC_, symObjAddr: 0x3AA0, symBinAddr: 0x100006520, symSize: 0x64 }
  - { offsetInCU: 0x882E, offset: 0x882E, size: 0x8, addend: 0x0, symName: __ZNSt3__121__unwrap_and_dispatchB8ue170006INS_10__overloadINS_11__move_loopINS_17_ClassicAlgPolicyEEENS_14__move_trivialEEENS_16reverse_iteratorIPNS_7complexIfEEEESB_SB_Li0EEENS_4pairIT0_T2_EESD_T1_SE_, symObjAddr: 0x3B04, symBinAddr: 0x100006584, symSize: 0x12C }
  - { offsetInCU: 0x88BE, offset: 0x88BE, size: 0x8, addend: 0x0, symName: __ZNSt3__114__unwrap_rangeB8ue170006INS_16reverse_iteratorIPNS_7complexIfEEEES5_EENS_4pairIT0_S7_EET_S9_, symObjAddr: 0x3C30, symBinAddr: 0x1000066B0, symSize: 0x84 }
  - { offsetInCU: 0x8A39, offset: 0x8A39, size: 0x8, addend: 0x0, symName: __ZNSt3__113__unwrap_iterB8ue170006INS_16reverse_iteratorIPNS_7complexIfEEEENS_18__unwrap_iter_implIS5_Lb0EEELi0EEEDTclsrT0_8__unwrapclsr3stdE7declvalIT_EEEES9_, symObjAddr: 0x3D54, symBinAddr: 0x1000067D4, symSize: 0x44 }
  - { offsetInCU: 0x8A7D, offset: 0x8A7D, size: 0x8, addend: 0x0, symName: __ZNSt3__19make_pairB8ue170006INS_16reverse_iteratorIPNS_7complexIfEEEES5_EENS_4pairINS_18__unwrap_ref_decayIT_E4typeENS7_IT0_E4typeEEEOS8_OSB_, symObjAddr: 0x3D98, symBinAddr: 0x100006818, symSize: 0x38 }
  - { offsetInCU: 0x8ACC, offset: 0x8ACC, size: 0x8, addend: 0x0, symName: __ZNSt3__114__rewrap_rangeB8ue170006INS_16reverse_iteratorIPNS_7complexIfEEEES5_EET_S6_T0_, symObjAddr: 0x3DD0, symBinAddr: 0x100006850, symSize: 0x5C }
  - { offsetInCU: 0x8B18, offset: 0x8B18, size: 0x8, addend: 0x0, symName: __ZNSt3__113__rewrap_iterB8ue170006INS_16reverse_iteratorIPNS_7complexIfEEEES5_NS_18__unwrap_iter_implIS5_Lb0EEEEET_S8_T0_, symObjAddr: 0x3E2C, symBinAddr: 0x1000068AC, symSize: 0x74 }
  - { offsetInCU: 0x8B6D, offset: 0x8B6D, size: 0x8, addend: 0x0, symName: __ZNSt3__1neB8ue170006IPNS_7complexIfEES3_EEbRKNS_16reverse_iteratorIT_EERKNS4_IT0_EE, symObjAddr: 0x3EA0, symBinAddr: 0x100006920, symSize: 0x48 }
  - { offsetInCU: 0x8FE7, offset: 0x8FE7, size: 0x8, addend: 0x0, symName: __ZNSt3__1lsB8ue170006INS_11char_traitsIcEEEERNS_13basic_ostreamIcT_EES6_c, symObjAddr: 0x4490, symBinAddr: 0x100006F10, symSize: 0x34 }
  - { offsetInCU: 0x902D, offset: 0x902D, size: 0x8, addend: 0x0, symName: __ZNSt3__1lsB8ue170006IcNS_11char_traitsIcEENS_9allocatorIcEEEERNS_13basic_ostreamIT_T0_EES9_RKNS_12basic_stringIS6_S7_T1_EE, symObjAddr: 0x44C4, symBinAddr: 0x100006F44, symSize: 0x4C }
  - { offsetInCU: 0x9090, offset: 0x9090, size: 0x8, addend: 0x0, symName: __ZNSt3__117__constexpr_isnanB8ue170006IfEENS_9enable_ifIXsr17is_floating_pointIT_EE5valueEbE4typeES2_, symObjAddr: 0x4A5C, symBinAddr: 0x1000074DC, symSize: 0x20 }
  - { offsetInCU: 0x90C7, offset: 0x90C7, size: 0x8, addend: 0x0, symName: __ZNSt3__117__constexpr_isinfB8ue170006IfEENS_9enable_ifIXsr17is_floating_pointIT_EE5valueEbE4typeES2_, symObjAddr: 0x4A7C, symBinAddr: 0x1000074FC, symSize: 0x2C }
  - { offsetInCU: 0x90FE, offset: 0x90FE, size: 0x8, addend: 0x0, symName: __ZNSt3__120__constexpr_copysignB8ue170006Eff, symObjAddr: 0x4AA8, symBinAddr: 0x100007528, symSize: 0x4C }
  - { offsetInCU: 0x913B, offset: 0x913B, size: 0x8, addend: 0x0, symName: __ZNSt3__1eqB8ue170006I11__mbstate_tEEbRKNS_4fposIT_EES6_, symObjAddr: 0x4B88, symBinAddr: 0x100007608, symSize: 0x48 }
  - { offsetInCU: 0x9442, offset: 0x9442, size: 0x8, addend: 0x0, symName: __ZSt28__throw_bad_array_new_lengthB8ue170006v, symObjAddr: 0x3734, symBinAddr: 0x1000061B4, symSize: 0x34 }
  - { offsetInCU: 0x9A60, offset: 0x9A60, size: 0x8, addend: 0x0, symName: __ZNSt3__16vectorINS_7complexIfEENS_9allocatorIS2_EEE26__swap_out_circular_bufferERNS_14__split_bufferIS2_RS4_EE, symObjAddr: 0x3050, symBinAddr: 0x100005AD0, symSize: 0x110 }
  - { offsetInCU: 0x9AB6, offset: 0x9AB6, size: 0x8, addend: 0x0, symName: __Z3powB8ue170006IiiENSt3__19enable_ifIXaasr3std13is_arithmeticIT_EE5valuesr3std13is_arithmeticIT0_EE5valueENS0_9__promoteIS2_S3_vEEE4type4typeES2_S3_, symObjAddr: 0x15A8, symBinAddr: 0x100004028, symSize: 0x44 }
  - { offsetInCU: 0xBE21, offset: 0xBE21, size: 0x8, addend: 0x0, symName: __Z11writeToFileRNSt3__114basic_ofstreamIcNS_11char_traitsIcEEEEii, symObjAddr: 0x0, symBinAddr: 0x100002A80, symSize: 0x38 }
  - { offsetInCU: 0xBE66, offset: 0xBE66, size: 0x8, addend: 0x0, symName: _main, symObjAddr: 0x38, symBinAddr: 0x100002AB8, symSize: 0xA7C }
  - { offsetInCU: 0xC136, offset: 0xC136, size: 0x8, addend: 0x0, symName: __ZN14SineOscillatorC1Eff, symObjAddr: 0xAB4, symBinAddr: 0x100003534, symSize: 0x3C }
  - { offsetInCU: 0xC17C, offset: 0xC17C, size: 0x8, addend: 0x0, symName: __ZN14SineOscillator7processEv, symObjAddr: 0xAF0, symBinAddr: 0x100003570, symSize: 0x5C }
  - { offsetInCU: 0xC1F8, offset: 0xC1F8, size: 0x8, addend: 0x0, symName: __ZNSt3__15arrayIfLm88200EEixB8ue170006Em, symObjAddr: 0xB4C, symBinAddr: 0x1000035CC, symSize: 0x20 }
  - { offsetInCU: 0xC22C, offset: 0xC22C, size: 0x8, addend: 0x0, symName: __ZNSt3__16vectorINS_7complexIfEENS_9allocatorIS2_EEEC1B8ue170006Ev, symObjAddr: 0xB6C, symBinAddr: 0x1000035EC, symSize: 0x2C }
  - { offsetInCU: 0xC256, offset: 0xC256, size: 0x8, addend: 0x0, symName: __ZNSt3__113basic_ostreamIcNS_11char_traitsIcEEElsB8ue170006EPFRS3_S4_E, symObjAddr: 0xBE0, symBinAddr: 0x100003660, symSize: 0x2C }
  - { offsetInCU: 0xC28A, offset: 0xC28A, size: 0x8, addend: 0x0, symName: __ZNSt3__17complexIfEC1B8ue170006Eff, symObjAddr: 0xC64, symBinAddr: 0x1000036E4, symSize: 0x3C }
  - { offsetInCU: 0xC2D1, offset: 0xC2D1, size: 0x8, addend: 0x0, symName: __Z3cosB8ue170006f, symObjAddr: 0xCE4, symBinAddr: 0x100003764, symSize: 0x24 }
  - { offsetInCU: 0xC2FF, offset: 0xC2FF, size: 0x8, addend: 0x0, symName: __Z3sinB8ue170006f, symObjAddr: 0xD08, symBinAddr: 0x100003788, symSize: 0x24 }
  - { offsetInCU: 0xC32E, offset: 0xC32E, size: 0x8, addend: 0x0, symName: __ZNSt3__17complexIfEpLB8ue170006IfEERS1_RKNS0_IT_EE, symObjAddr: 0xD2C, symBinAddr: 0x1000037AC, symSize: 0x60 }
  - { offsetInCU: 0xC36C, offset: 0xC36C, size: 0x8, addend: 0x0, symName: __ZNSt3__16vectorINS_7complexIfEENS_9allocatorIS2_EEE9push_backB8ue170006ERKS2_, symObjAddr: 0xD8C, symBinAddr: 0x10000380C, symSize: 0x6C }
  - { offsetInCU: 0xC3A3, offset: 0xC3A3, size: 0x8, addend: 0x0, symName: __ZNSt3__16vectorINS_7complexIfEENS_9allocatorIS2_EEEixB8ue170006Em, symObjAddr: 0x1000, symBinAddr: 0x100003A80, symSize: 0x24 }
  - { offsetInCU: 0xC3DA, offset: 0xC3DA, size: 0x8, addend: 0x0, symName: __ZNSt3__17complexIfEaSB8ue170006Ef, symObjAddr: 0x1024, symBinAddr: 0x100003AA4, symSize: 0x28 }
  - { offsetInCU: 0xC40F, offset: 0xC40F, size: 0x8, addend: 0x0, symName: __ZNKSt3__17complexIfE4realB8ue170006Ev, symObjAddr: 0x1414, symBinAddr: 0x100003E94, symSize: 0x18 }
  - { offsetInCU: 0xC4CD, offset: 0xC4CD, size: 0x8, addend: 0x0, symName: __ZNSt3__114basic_ofstreamIcNS_11char_traitsIcEEEC1Ev, symObjAddr: 0x142C, symBinAddr: 0x100003EAC, symSize: 0xE8 }
  - { offsetInCU: 0xC4F9, offset: 0xC4F9, size: 0x8, addend: 0x0, symName: __ZNSt3__113basic_ostreamIcNS_11char_traitsIcEEE5tellpEv, symObjAddr: 0x1514, symBinAddr: 0x100003F94, symSize: 0x7C }
  - { offsetInCU: 0xC521, offset: 0xC521, size: 0x8, addend: 0x0, symName: __ZNKSt3__14fposI11__mbstate_tEcvxB8ue170006Ev, symObjAddr: 0x1590, symBinAddr: 0x100004010, symSize: 0x18 }
  - { offsetInCU: 0xC547, offset: 0xC547, size: 0x8, addend: 0x0, symName: __ZNSt3__113basic_ostreamIcNS_11char_traitsIcEEE5seekpENS_4fposI11__mbstate_tEE, symObjAddr: 0x15EC, symBinAddr: 0x10000406C, symSize: 0x160 }
  - { offsetInCU: 0xC591, offset: 0xC591, size: 0x8, addend: 0x0, symName: __ZNSt3__14fposI11__mbstate_tEC1B8ue170006Ex, symObjAddr: 0x174C, symBinAddr: 0x1000041CC, symSize: 0x34 }
  - { offsetInCU: 0xC5C9, offset: 0xC5C9, size: 0x8, addend: 0x0, symName: __ZNSt3__113basic_ostreamIcNS_11char_traitsIcEEE5seekpExNS_8ios_base7seekdirE, symObjAddr: 0x1780, symBinAddr: 0x100004200, symSize: 0x144 }
  - { offsetInCU: 0xC61F, offset: 0xC61F, size: 0x8, addend: 0x0, symName: __ZNSt3__114basic_ofstreamIcNS_11char_traitsIcEEE5closeEv, symObjAddr: 0x18C4, symBinAddr: 0x100004344, symSize: 0x58 }
  - { offsetInCU: 0xC64C, offset: 0xC64C, size: 0x8, addend: 0x0, symName: __ZNSt3__114basic_ofstreamIcNS_11char_traitsIcEEED1Ev, symObjAddr: 0x191C, symBinAddr: 0x10000439C, symSize: 0x40 }
  - { offsetInCU: 0xC679, offset: 0xC679, size: 0x8, addend: 0x0, symName: __ZNSt3__16vectorINS_7complexIfEENS_9allocatorIS2_EEED1B8ue170006Ev, symObjAddr: 0x195C, symBinAddr: 0x1000043DC, symSize: 0x2C }
  - { offsetInCU: 0xC6A3, offset: 0xC6A3, size: 0x8, addend: 0x0, symName: __ZN14SineOscillatorC2Eff, symObjAddr: 0x1988, symBinAddr: 0x100004408, symSize: 0x60 }
  - { offsetInCU: 0xC6E9, offset: 0xC6E9, size: 0x8, addend: 0x0, symName: __ZNSt3__17complexIfEC2B8ue170006Eff, symObjAddr: 0x19E8, symBinAddr: 0x100004468, symSize: 0x2C }
  - { offsetInCU: 0xC731, offset: 0xC731, size: 0x8, addend: 0x0, symName: __ZNSt3__114basic_ofstreamIcNS_11char_traitsIcEEED2Ev, symObjAddr: 0x1A14, symBinAddr: 0x100004494, symSize: 0x64 }
  - { offsetInCU: 0xC76B, offset: 0xC76B, size: 0x8, addend: 0x0, symName: __ZTv0_n24_NSt3__114basic_ofstreamIcNS_11char_traitsIcEEED1Ev, symObjAddr: 0x1A78, symBinAddr: 0x1000044F8, symSize: 0x28 }
  - { offsetInCU: 0xC782, offset: 0xC782, size: 0x8, addend: 0x0, symName: __ZNSt3__16vectorINS_7complexIfEENS_9allocatorIS2_EEEC2B8ue170006Ev, symObjAddr: 0x1AA0, symBinAddr: 0x100004520, symSize: 0x4C }
  - { offsetInCU: 0xC7B6, offset: 0xC7B6, size: 0x8, addend: 0x0, symName: __ZNSt3__117__compressed_pairIPNS_7complexIfEENS_9allocatorIS2_EEEC1B8ue170006IDnNS_18__default_init_tagEEEOT_OT0_, symObjAddr: 0x1AEC, symBinAddr: 0x10000456C, symSize: 0x3C }
  - { offsetInCU: 0xC80E, offset: 0xC80E, size: 0x8, addend: 0x0, symName: __ZNSt3__117__compressed_pairIPNS_7complexIfEENS_9allocatorIS2_EEEC2B8ue170006IDnNS_18__default_init_tagEEEOT_OT0_, symObjAddr: 0x1B28, symBinAddr: 0x1000045A8, symSize: 0x40 }
  - { offsetInCU: 0xC866, offset: 0xC866, size: 0x8, addend: 0x0, symName: __ZNSt3__122__compressed_pair_elemIPNS_7complexIfEELi0ELb0EEC2B8ue170006IDnvEEOT_, symObjAddr: 0x1B68, symBinAddr: 0x1000045E8, symSize: 0x1C }
  - { offsetInCU: 0xC8A8, offset: 0xC8A8, size: 0x8, addend: 0x0, symName: __ZNSt3__122__compressed_pair_elemINS_9allocatorINS_7complexIfEEEELi1ELb1EEC2B8ue170006ENS_18__default_init_tagE, symObjAddr: 0x1B84, symBinAddr: 0x100004604, symSize: 0x2C }
  - { offsetInCU: 0xC8DD, offset: 0xC8DD, size: 0x8, addend: 0x0, symName: __ZNSt3__19allocatorINS_7complexIfEEEC2B8ue170006Ev, symObjAddr: 0x1BB0, symBinAddr: 0x100004630, symSize: 0x2C }
  - { offsetInCU: 0xC907, offset: 0xC907, size: 0x8, addend: 0x0, symName: __ZNSt3__116__non_trivial_ifILb1ENS_9allocatorINS_7complexIfEEEEEC2B8ue170006Ev, symObjAddr: 0x1BDC, symBinAddr: 0x10000465C, symSize: 0x14 }
  - { offsetInCU: 0xC931, offset: 0xC931, size: 0x8, addend: 0x0, symName: __ZNSt3__16vectorINS_7complexIfEENS_9allocatorIS2_EEED2B8ue170006Ev, symObjAddr: 0x1BF0, symBinAddr: 0x100004670, symSize: 0x44 }
  - { offsetInCU: 0xC95B, offset: 0xC95B, size: 0x8, addend: 0x0, symName: __ZNSt3__16vectorINS_7complexIfEENS_9allocatorIS2_EEE16__destroy_vectorC1B8ue170006ERS5_, symObjAddr: 0x1C34, symBinAddr: 0x1000046B4, symSize: 0x34 }
  - { offsetInCU: 0xC994, offset: 0xC994, size: 0x8, addend: 0x0, symName: __ZNSt3__16vectorINS_7complexIfEENS_9allocatorIS2_EEE16__destroy_vectorclB8ue170006Ev, symObjAddr: 0x1C68, symBinAddr: 0x1000046E8, symSize: 0x90 }
  - { offsetInCU: 0xC9BA, offset: 0xC9BA, size: 0x8, addend: 0x0, symName: __ZNSt3__16vectorINS_7complexIfEENS_9allocatorIS2_EEE16__destroy_vectorC2B8ue170006ERS5_, symObjAddr: 0x1CF8, symBinAddr: 0x100004778, symSize: 0x20 }
  - { offsetInCU: 0xC9F3, offset: 0xC9F3, size: 0x8, addend: 0x0, symName: __ZNSt3__16vectorINS_7complexIfEENS_9allocatorIS2_EEE7__clearB8ue170006Ev, symObjAddr: 0x1D18, symBinAddr: 0x100004798, symSize: 0x28 }
  - { offsetInCU: 0xCA19, offset: 0xCA19, size: 0x8, addend: 0x0, symName: __ZNKSt3__16vectorINS_7complexIfEENS_9allocatorIS2_EEE17__annotate_deleteB8ue170006Ev, symObjAddr: 0x1D40, symBinAddr: 0x1000047C0, symSize: 0xB8 }
  - { offsetInCU: 0xCA3F, offset: 0xCA3F, size: 0x8, addend: 0x0, symName: __ZNSt3__116allocator_traitsINS_9allocatorINS_7complexIfEEEEE10deallocateB8ue170006ERS4_PS3_m, symObjAddr: 0x1DF8, symBinAddr: 0x100004878, symSize: 0x34 }
  - { offsetInCU: 0xCA81, offset: 0xCA81, size: 0x8, addend: 0x0, symName: __ZNSt3__16vectorINS_7complexIfEENS_9allocatorIS2_EEE7__allocB8ue170006Ev, symObjAddr: 0x1E2C, symBinAddr: 0x1000048AC, symSize: 0x28 }
  - { offsetInCU: 0xCAA7, offset: 0xCAA7, size: 0x8, addend: 0x0, symName: __ZNKSt3__16vectorINS_7complexIfEENS_9allocatorIS2_EEE8capacityB8ue170006Ev, symObjAddr: 0x1E54, symBinAddr: 0x1000048D4, symSize: 0x40 }
  - { offsetInCU: 0xCACD, offset: 0xCACD, size: 0x8, addend: 0x0, symName: __ZNSt3__16vectorINS_7complexIfEENS_9allocatorIS2_EEE22__base_destruct_at_endB8ue170006EPS2_, symObjAddr: 0x1E94, symBinAddr: 0x100004914, symSize: 0x8C }
  - { offsetInCU: 0xCB11, offset: 0xCB11, size: 0x8, addend: 0x0, symName: __ZNSt3__116allocator_traitsINS_9allocatorINS_7complexIfEEEEE7destroyB8ue170006IS3_vEEvRS4_PT_, symObjAddr: 0x1F20, symBinAddr: 0x1000049A0, symSize: 0x2C }
  - { offsetInCU: 0xCB4E, offset: 0xCB4E, size: 0x8, addend: 0x0, symName: __ZNSt3__19allocatorINS_7complexIfEEE7destroyB8ue170006EPS2_, symObjAddr: 0x1F60, symBinAddr: 0x1000049E0, symSize: 0x14 }
  - { offsetInCU: 0xCB82, offset: 0xCB82, size: 0x8, addend: 0x0, symName: __ZNKSt3__16vectorINS_7complexIfEENS_9allocatorIS2_EEE31__annotate_contiguous_containerB8ue170006EPKvS7_S7_S7_, symObjAddr: 0x1F74, symBinAddr: 0x1000049F4, symSize: 0x20 }
  - { offsetInCU: 0xCBD4, offset: 0xCBD4, size: 0x8, addend: 0x0, symName: __ZNKSt3__16vectorINS_7complexIfEENS_9allocatorIS2_EEE4dataB8ue170006Ev, symObjAddr: 0x1F94, symBinAddr: 0x100004A14, symSize: 0x28 }
  - { offsetInCU: 0xCBFA, offset: 0xCBFA, size: 0x8, addend: 0x0, symName: __ZNKSt3__16vectorINS_7complexIfEENS_9allocatorIS2_EEE4sizeB8ue170006Ev, symObjAddr: 0x1FBC, symBinAddr: 0x100004A3C, symSize: 0x28 }
  - { offsetInCU: 0xCC20, offset: 0xCC20, size: 0x8, addend: 0x0, symName: __ZNSt3__19allocatorINS_7complexIfEEE10deallocateB8ue170006EPS2_m, symObjAddr: 0x1FE4, symBinAddr: 0x100004A64, symSize: 0x40 }
  - { offsetInCU: 0xCC62, offset: 0xCC62, size: 0x8, addend: 0x0, symName: __ZNSt3__117__compressed_pairIPNS_7complexIfEENS_9allocatorIS2_EEE6secondB8ue170006Ev, symObjAddr: 0x20A0, symBinAddr: 0x100004B20, symSize: 0x24 }
  - { offsetInCU: 0xCC88, offset: 0xCC88, size: 0x8, addend: 0x0, symName: __ZNSt3__122__compressed_pair_elemINS_9allocatorINS_7complexIfEEEELi1ELb1EE5__getB8ue170006Ev, symObjAddr: 0x20C4, symBinAddr: 0x100004B44, symSize: 0x14 }
  - { offsetInCU: 0xCCAE, offset: 0xCCAE, size: 0x8, addend: 0x0, symName: __ZNKSt3__16vectorINS_7complexIfEENS_9allocatorIS2_EEE9__end_capB8ue170006Ev, symObjAddr: 0x20D8, symBinAddr: 0x100004B58, symSize: 0x28 }
  - { offsetInCU: 0xCCD4, offset: 0xCCD4, size: 0x8, addend: 0x0, symName: __ZNKSt3__117__compressed_pairIPNS_7complexIfEENS_9allocatorIS2_EEE5firstB8ue170006Ev, symObjAddr: 0x2100, symBinAddr: 0x100004B80, symSize: 0x24 }
  - { offsetInCU: 0xCCFA, offset: 0xCCFA, size: 0x8, addend: 0x0, symName: __ZNKSt3__122__compressed_pair_elemIPNS_7complexIfEELi0ELb0EE5__getB8ue170006Ev, symObjAddr: 0x2124, symBinAddr: 0x100004BA4, symSize: 0x14 }
  - { offsetInCU: 0xCD20, offset: 0xCD20, size: 0x8, addend: 0x0, symName: __ZNSt3__111char_traitsIcE6lengthB8ue170006EPKc, symObjAddr: 0x2324, symBinAddr: 0x100004DA4, symSize: 0x34 }
  - { offsetInCU: 0xCD61, offset: 0xCD61, size: 0x8, addend: 0x0, symName: __ZNKSt3__113basic_ostreamIcNS_11char_traitsIcEEE6sentrycvbB8ue170006Ev, symObjAddr: 0x2358, symBinAddr: 0x100004DD8, symSize: 0x1C }
  - { offsetInCU: 0xCD87, offset: 0xCD87, size: 0x8, addend: 0x0, symName: __ZNSt3__119ostreambuf_iteratorIcNS_11char_traitsIcEEEC1B8ue170006ERNS_13basic_ostreamIcS2_EE, symObjAddr: 0x25B4, symBinAddr: 0x100005034, symSize: 0x34 }
  - { offsetInCU: 0xCDBF, offset: 0xCDBF, size: 0x8, addend: 0x0, symName: __ZNKSt3__18ios_base5flagsB8ue170006Ev, symObjAddr: 0x25E8, symBinAddr: 0x100005068, symSize: 0x18 }
  - { offsetInCU: 0xCDE7, offset: 0xCDE7, size: 0x8, addend: 0x0, symName: __ZNKSt3__19basic_iosIcNS_11char_traitsIcEEE4fillB8ue170006Ev, symObjAddr: 0x2600, symBinAddr: 0x100005080, symSize: 0x64 }
  - { offsetInCU: 0xCE0F, offset: 0xCE0F, size: 0x8, addend: 0x0, symName: __ZNKSt3__119ostreambuf_iteratorIcNS_11char_traitsIcEEE6failedB8ue170006Ev, symObjAddr: 0x2664, symBinAddr: 0x1000050E4, symSize: 0x24 }
  - { offsetInCU: 0xCE35, offset: 0xCE35, size: 0x8, addend: 0x0, symName: __ZNSt3__19basic_iosIcNS_11char_traitsIcEEE8setstateB8ue170006Ej, symObjAddr: 0x2688, symBinAddr: 0x100005108, symSize: 0x2C }
  - { offsetInCU: 0xCE6A, offset: 0xCE6A, size: 0x8, addend: 0x0, symName: __ZNKSt3__18ios_base5widthB8ue170006Ev, symObjAddr: 0x26B4, symBinAddr: 0x100005134, symSize: 0x18 }
  - { offsetInCU: 0xCE92, offset: 0xCE92, size: 0x8, addend: 0x0, symName: __ZNSt3__115basic_streambufIcNS_11char_traitsIcEEE5sputnB8ue170006EPKcl, symObjAddr: 0x26CC, symBinAddr: 0x10000514C, symSize: 0x3C }
  - { offsetInCU: 0xCED4, offset: 0xCED4, size: 0x8, addend: 0x0, symName: __ZNSt3__112basic_stringIcNS_11char_traitsIcEENS_9allocatorIcEEEC1B8ue170006Emc, symObjAddr: 0x2708, symBinAddr: 0x100005188, symSize: 0x3C }
  - { offsetInCU: 0xCF1C, offset: 0xCF1C, size: 0x8, addend: 0x0, symName: __ZNKSt3__112basic_stringIcNS_11char_traitsIcEENS_9allocatorIcEEE4dataB8ue170006Ev, symObjAddr: 0x2744, symBinAddr: 0x1000051C4, symSize: 0x28 }
  - { offsetInCU: 0xCF42, offset: 0xCF42, size: 0x8, addend: 0x0, symName: __ZNSt3__18ios_base5widthB8ue170006El, symObjAddr: 0x276C, symBinAddr: 0x1000051EC, symSize: 0x2C }
  - { offsetInCU: 0xCF88, offset: 0xCF88, size: 0x8, addend: 0x0, symName: __ZNSt3__112basic_stringIcNS_11char_traitsIcEENS_9allocatorIcEEEC2B8ue170006Emc, symObjAddr: 0x2798, symBinAddr: 0x100005218, symSize: 0x4C }
  - { offsetInCU: 0xCFD0, offset: 0xCFD0, size: 0x8, addend: 0x0, symName: __ZNSt3__117__compressed_pairINS_12basic_stringIcNS_11char_traitsIcEENS_9allocatorIcEEE5__repES5_EC1B8ue170006INS_18__default_init_tagESA_EEOT_OT0_, symObjAddr: 0x27E4, symBinAddr: 0x100005264, symSize: 0x3C }
  - { offsetInCU: 0xD028, offset: 0xD028, size: 0x8, addend: 0x0, symName: __ZNSt3__117__compressed_pairINS_12basic_stringIcNS_11char_traitsIcEENS_9allocatorIcEEE5__repES5_EC2B8ue170006INS_18__default_init_tagESA_EEOT_OT0_, symObjAddr: 0x2820, symBinAddr: 0x1000052A0, symSize: 0x3C }
  - { offsetInCU: 0xD080, offset: 0xD080, size: 0x8, addend: 0x0, symName: __ZNSt3__122__compressed_pair_elemINS_12basic_stringIcNS_11char_traitsIcEENS_9allocatorIcEEE5__repELi0ELb0EEC2B8ue170006ENS_18__default_init_tagE, symObjAddr: 0x285C, symBinAddr: 0x1000052DC, symSize: 0x14 }
  - { offsetInCU: 0xD0B5, offset: 0xD0B5, size: 0x8, addend: 0x0, symName: __ZNSt3__122__compressed_pair_elemINS_9allocatorIcEELi1ELb1EEC2B8ue170006ENS_18__default_init_tagE, symObjAddr: 0x2870, symBinAddr: 0x1000052F0, symSize: 0x2C }
  - { offsetInCU: 0xD0EA, offset: 0xD0EA, size: 0x8, addend: 0x0, symName: __ZNSt3__19allocatorIcEC2B8ue170006Ev, symObjAddr: 0x289C, symBinAddr: 0x10000531C, symSize: 0x2C }
  - { offsetInCU: 0xD114, offset: 0xD114, size: 0x8, addend: 0x0, symName: __ZNSt3__116__non_trivial_ifILb1ENS_9allocatorIcEEEC2B8ue170006Ev, symObjAddr: 0x28C8, symBinAddr: 0x100005348, symSize: 0x14 }
  - { offsetInCU: 0xD13E, offset: 0xD13E, size: 0x8, addend: 0x0, symName: __ZNKSt3__112basic_stringIcNS_11char_traitsIcEENS_9allocatorIcEEE13__get_pointerB8ue170006Ev, symObjAddr: 0x28F0, symBinAddr: 0x100005370, symSize: 0x54 }
  - { offsetInCU: 0xD164, offset: 0xD164, size: 0x8, addend: 0x0, symName: __ZNKSt3__112basic_stringIcNS_11char_traitsIcEENS_9allocatorIcEEE9__is_longB8ue170006Ev, symObjAddr: 0x2944, symBinAddr: 0x1000053C4, symSize: 0x38 }
  - { offsetInCU: 0xD18A, offset: 0xD18A, size: 0x8, addend: 0x0, symName: __ZNKSt3__112basic_stringIcNS_11char_traitsIcEENS_9allocatorIcEEE18__get_long_pointerB8ue170006Ev, symObjAddr: 0x297C, symBinAddr: 0x1000053FC, symSize: 0x28 }
  - { offsetInCU: 0xD1B0, offset: 0xD1B0, size: 0x8, addend: 0x0, symName: __ZNKSt3__112basic_stringIcNS_11char_traitsIcEENS_9allocatorIcEEE19__get_short_pointerB8ue170006Ev, symObjAddr: 0x29A4, symBinAddr: 0x100005424, symSize: 0x28 }
  - { offsetInCU: 0xD1D6, offset: 0xD1D6, size: 0x8, addend: 0x0, symName: __ZNKSt3__117__compressed_pairINS_12basic_stringIcNS_11char_traitsIcEENS_9allocatorIcEEE5__repES5_E5firstB8ue170006Ev, symObjAddr: 0x29CC, symBinAddr: 0x10000544C, symSize: 0x24 }
  - { offsetInCU: 0xD1FC, offset: 0xD1FC, size: 0x8, addend: 0x0, symName: __ZNKSt3__122__compressed_pair_elemINS_12basic_stringIcNS_11char_traitsIcEENS_9allocatorIcEEE5__repELi0ELb0EE5__getB8ue170006Ev, symObjAddr: 0x29F0, symBinAddr: 0x100005470, symSize: 0x14 }
  - { offsetInCU: 0xD222, offset: 0xD222, size: 0x8, addend: 0x0, symName: __ZNSt3__114pointer_traitsIPKcE10pointer_toB8ue170006ERS1_, symObjAddr: 0x2A04, symBinAddr: 0x100005484, symSize: 0x14 }
  - { offsetInCU: 0xD245, offset: 0xD245, size: 0x8, addend: 0x0, symName: __ZNSt3__119ostreambuf_iteratorIcNS_11char_traitsIcEEEC2B8ue170006ERNS_13basic_ostreamIcS2_EE, symObjAddr: 0x2A18, symBinAddr: 0x100005498, symSize: 0x54 }
  - { offsetInCU: 0xD27D, offset: 0xD27D, size: 0x8, addend: 0x0, symName: __ZNKSt3__19basic_iosIcNS_11char_traitsIcEEE5rdbufB8ue170006Ev, symObjAddr: 0x2A6C, symBinAddr: 0x1000054EC, symSize: 0x24 }
  - { offsetInCU: 0xD2A5, offset: 0xD2A5, size: 0x8, addend: 0x0, symName: __ZNKSt3__18ios_base5rdbufB8ue170006Ev, symObjAddr: 0x2A90, symBinAddr: 0x100005510, symSize: 0x18 }
  - { offsetInCU: 0xD2CB, offset: 0xD2CB, size: 0x8, addend: 0x0, symName: __ZNSt3__111char_traitsIcE11eq_int_typeB8ue170006Eii, symObjAddr: 0x2AA8, symBinAddr: 0x100005528, symSize: 0x28 }
  - { offsetInCU: 0xD2FE, offset: 0xD2FE, size: 0x8, addend: 0x0, symName: __ZNSt3__111char_traitsIcE3eofB8ue170006Ev, symObjAddr: 0x2AD0, symBinAddr: 0x100005550, symSize: 0x8 }
  - { offsetInCU: 0xD312, offset: 0xD312, size: 0x8, addend: 0x0, symName: __ZNKSt3__19basic_iosIcNS_11char_traitsIcEEE5widenB8ue170006Ec, symObjAddr: 0x2AD8, symBinAddr: 0x100005558, symSize: 0x84 }
  - { offsetInCU: 0xD380, offset: 0xD380, size: 0x8, addend: 0x0, symName: __ZNKSt3__15ctypeIcE5widenB8ue170006Ec, symObjAddr: 0x2B88, symBinAddr: 0x100005608, symSize: 0x38 }
  - { offsetInCU: 0xD3B5, offset: 0xD3B5, size: 0x8, addend: 0x0, symName: __ZNSt3__18ios_base8setstateB8ue170006Ej, symObjAddr: 0x2BC0, symBinAddr: 0x100005640, symSize: 0x34 }
  - { offsetInCU: 0xD3EC, offset: 0xD3EC, size: 0x8, addend: 0x0, symName: __ZNSt3__17complexIfEmLB8ue170006Ef, symObjAddr: 0x2C18, symBinAddr: 0x100005698, symSize: 0x38 }
  - { offsetInCU: 0xD421, offset: 0xD421, size: 0x8, addend: 0x0, symName: __ZNKSt3__17complexIfE4imagB8ue170006Ev, symObjAddr: 0x2C50, symBinAddr: 0x1000056D0, symSize: 0x18 }
  - { offsetInCU: 0xD447, offset: 0xD447, size: 0x8, addend: 0x0, symName: __ZNSt3__16vectorINS_7complexIfEENS_9allocatorIS2_EEE9__end_capB8ue170006Ev, symObjAddr: 0x2C68, symBinAddr: 0x1000056E8, symSize: 0x28 }
  - { offsetInCU: 0xD46D, offset: 0xD46D, size: 0x8, addend: 0x0, symName: __ZNSt3__16vectorINS_7complexIfEENS_9allocatorIS2_EEE22__construct_one_at_endB8ue170006IJRKS2_EEEvDpOT_, symObjAddr: 0x2C90, symBinAddr: 0x100005710, symSize: 0x90 }
  - { offsetInCU: 0xD4BC, offset: 0xD4BC, size: 0x8, addend: 0x0, symName: __ZNSt3__16vectorINS_7complexIfEENS_9allocatorIS2_EEE21__push_back_slow_pathIRKS2_EEvOT_, symObjAddr: 0x2D20, symBinAddr: 0x1000057A0, symSize: 0xD8 }
  - { offsetInCU: 0xD51A, offset: 0xD51A, size: 0x8, addend: 0x0, symName: __ZNSt3__117__compressed_pairIPNS_7complexIfEENS_9allocatorIS2_EEE5firstB8ue170006Ev, symObjAddr: 0x2DF8, symBinAddr: 0x100005878, symSize: 0x24 }
  - { offsetInCU: 0xD540, offset: 0xD540, size: 0x8, addend: 0x0, symName: __ZNSt3__122__compressed_pair_elemIPNS_7complexIfEELi0ELb0EE5__getB8ue170006Ev, symObjAddr: 0x2E1C, symBinAddr: 0x10000589C, symSize: 0x14 }
  - { offsetInCU: 0xD57F, offset: 0xD57F, size: 0x8, addend: 0x0, symName: __ZNSt3__16vectorINS_7complexIfEENS_9allocatorIS2_EEE21_ConstructTransactionC1B8ue170006ERS5_m, symObjAddr: 0x2E30, symBinAddr: 0x1000058B0, symSize: 0x3C }
  - { offsetInCU: 0xD5C7, offset: 0xD5C7, size: 0x8, addend: 0x0, symName: __ZNSt3__116allocator_traitsINS_9allocatorINS_7complexIfEEEEE9constructB8ue170006IS3_JRKS3_EvEEvRS4_PT_DpOT0_, symObjAddr: 0x2E6C, symBinAddr: 0x1000058EC, symSize: 0x34 }
  - { offsetInCU: 0xD61E, offset: 0xD61E, size: 0x8, addend: 0x0, symName: __ZNSt3__16vectorINS_7complexIfEENS_9allocatorIS2_EEE21_ConstructTransactionD1B8ue170006Ev, symObjAddr: 0x2EA0, symBinAddr: 0x100005920, symSize: 0x2C }
  - { offsetInCU: 0xD648, offset: 0xD648, size: 0x8, addend: 0x0, symName: __ZNSt3__16vectorINS_7complexIfEENS_9allocatorIS2_EEE21_ConstructTransactionC2B8ue170006ERS5_m, symObjAddr: 0x2ECC, symBinAddr: 0x10000594C, symSize: 0x44 }
  - { offsetInCU: 0xD690, offset: 0xD690, size: 0x8, addend: 0x0, symName: __ZNSt3__19allocatorINS_7complexIfEEE9constructB8ue170006IS2_JRKS2_EEEvPT_DpOT0_, symObjAddr: 0x2F10, symBinAddr: 0x100005990, symSize: 0x28 }
  - { offsetInCU: 0xD6E6, offset: 0xD6E6, size: 0x8, addend: 0x0, symName: __ZNSt3__16vectorINS_7complexIfEENS_9allocatorIS2_EEE21_ConstructTransactionD2B8ue170006Ev, symObjAddr: 0x2F38, symBinAddr: 0x1000059B8, symSize: 0x20 }
  - { offsetInCU: 0xD710, offset: 0xD710, size: 0x8, addend: 0x0, symName: __ZNKSt3__16vectorINS_7complexIfEENS_9allocatorIS2_EEE11__recommendB8ue170006Em, symObjAddr: 0x2F58, symBinAddr: 0x1000059D8, symSize: 0xB4 }
  - { offsetInCU: 0xD765, offset: 0xD765, size: 0x8, addend: 0x0, symName: __ZNSt3__114__split_bufferINS_7complexIfEERNS_9allocatorIS2_EEEC1EmmS5_, symObjAddr: 0x300C, symBinAddr: 0x100005A8C, symSize: 0x44 }
  - { offsetInCU: 0xD7BB, offset: 0xD7BB, size: 0x8, addend: 0x0, symName: __ZNSt3__114__split_bufferINS_7complexIfEERNS_9allocatorIS2_EEED1Ev, symObjAddr: 0x3160, symBinAddr: 0x100005BE0, symSize: 0x2C }
  - { offsetInCU: 0xD7E7, offset: 0xD7E7, size: 0x8, addend: 0x0, symName: __ZNKSt3__16vectorINS_7complexIfEENS_9allocatorIS2_EEE8max_sizeEv, symObjAddr: 0x318C, symBinAddr: 0x100005C0C, symSize: 0x60 }
  - { offsetInCU: 0xD80F, offset: 0xD80F, size: 0x8, addend: 0x0, symName: __ZNKSt3__16vectorINS_7complexIfEENS_9allocatorIS2_EEE20__throw_length_errorB8ue170006Ev, symObjAddr: 0x31EC, symBinAddr: 0x100005C6C, symSize: 0x1C }
  - { offsetInCU: 0xD83F, offset: 0xD83F, size: 0x8, addend: 0x0, symName: __ZNSt3__116allocator_traitsINS_9allocatorINS_7complexIfEEEEE8max_sizeB8ue170006IS4_vEEmRKS4_, symObjAddr: 0x3260, symBinAddr: 0x100005CE0, symSize: 0x24 }
  - { offsetInCU: 0xD86D, offset: 0xD86D, size: 0x8, addend: 0x0, symName: __ZNKSt3__16vectorINS_7complexIfEENS_9allocatorIS2_EEE7__allocB8ue170006Ev, symObjAddr: 0x3284, symBinAddr: 0x100005D04, symSize: 0x28 }
  - { offsetInCU: 0xD893, offset: 0xD893, size: 0x8, addend: 0x0, symName: __ZNSt3__114numeric_limitsIlE3maxB8ue170006Ev, symObjAddr: 0x32AC, symBinAddr: 0x100005D2C, symSize: 0x14 }
  - { offsetInCU: 0xD8BB, offset: 0xD8BB, size: 0x8, addend: 0x0, symName: __ZNKSt3__16__lessIvvEclB8ue170006ImmEEbRKT_RKT0_, symObjAddr: 0x3314, symBinAddr: 0x100005D94, symSize: 0x34 }
  - { offsetInCU: 0xD90F, offset: 0xD90F, size: 0x8, addend: 0x0, symName: __ZNKSt3__19allocatorINS_7complexIfEEE8max_sizeB8ue170006Ev, symObjAddr: 0x3348, symBinAddr: 0x100005DC8, symSize: 0x14 }
  - { offsetInCU: 0xD935, offset: 0xD935, size: 0x8, addend: 0x0, symName: __ZNKSt3__117__compressed_pairIPNS_7complexIfEENS_9allocatorIS2_EEE6secondB8ue170006Ev, symObjAddr: 0x335C, symBinAddr: 0x100005DDC, symSize: 0x24 }
  - { offsetInCU: 0xD95B, offset: 0xD95B, size: 0x8, addend: 0x0, symName: __ZNKSt3__122__compressed_pair_elemINS_9allocatorINS_7complexIfEEEELi1ELb1EE5__getB8ue170006Ev, symObjAddr: 0x3380, symBinAddr: 0x100005E00, symSize: 0x14 }
  - { offsetInCU: 0xD981, offset: 0xD981, size: 0x8, addend: 0x0, symName: __ZNSt3__123__libcpp_numeric_limitsIlLb1EE3maxB8ue170006Ev, symObjAddr: 0x3394, symBinAddr: 0x100005E14, symSize: 0x8 }
  - { offsetInCU: 0xD995, offset: 0xD995, size: 0x8, addend: 0x0, symName: __ZNSt12length_errorC1B8ue170006EPKc, symObjAddr: 0x3400, symBinAddr: 0x100005E80, symSize: 0x34 }
  - { offsetInCU: 0xD9CD, offset: 0xD9CD, size: 0x8, addend: 0x0, symName: __ZNSt12length_errorC2B8ue170006EPKc, symObjAddr: 0x3434, symBinAddr: 0x100005EB4, symSize: 0x4C }
  - { offsetInCU: 0xDA05, offset: 0xDA05, size: 0x8, addend: 0x0, symName: __ZNSt3__114__split_bufferINS_7complexIfEERNS_9allocatorIS2_EEEC2EmmS5_, symObjAddr: 0x34D4, symBinAddr: 0x100005F54, symSize: 0xD4 }
  - { offsetInCU: 0xDA78, offset: 0xDA78, size: 0x8, addend: 0x0, symName: __ZNSt3__117__compressed_pairIPNS_7complexIfEERNS_9allocatorIS2_EEEC1B8ue170006IDnS6_EEOT_OT0_, symObjAddr: 0x35A8, symBinAddr: 0x100006028, symSize: 0x3C }
  - { offsetInCU: 0xDAD0, offset: 0xDAD0, size: 0x8, addend: 0x0, symName: __ZNSt3__114__split_bufferINS_7complexIfEERNS_9allocatorIS2_EEE7__allocB8ue170006Ev, symObjAddr: 0x3624, symBinAddr: 0x1000060A4, symSize: 0x28 }
  - { offsetInCU: 0xDAF6, offset: 0xDAF6, size: 0x8, addend: 0x0, symName: __ZNSt3__114__split_bufferINS_7complexIfEERNS_9allocatorIS2_EEE9__end_capB8ue170006Ev, symObjAddr: 0x364C, symBinAddr: 0x1000060CC, symSize: 0x28 }
  - { offsetInCU: 0xDB1C, offset: 0xDB1C, size: 0x8, addend: 0x0, symName: __ZNSt3__117__compressed_pairIPNS_7complexIfEERNS_9allocatorIS2_EEEC2B8ue170006IDnS6_EEOT_OT0_, symObjAddr: 0x3674, symBinAddr: 0x1000060F4, symSize: 0x48 }
  - { offsetInCU: 0xDB74, offset: 0xDB74, size: 0x8, addend: 0x0, symName: __ZNSt3__122__compressed_pair_elemIRNS_9allocatorINS_7complexIfEEEELi1ELb0EEC2B8ue170006IS5_vEEOT_, symObjAddr: 0x36BC, symBinAddr: 0x10000613C, symSize: 0x20 }
  - { offsetInCU: 0xDBB6, offset: 0xDBB6, size: 0x8, addend: 0x0, symName: __ZNSt3__19allocatorINS_7complexIfEEE8allocateB8ue170006Em, symObjAddr: 0x36DC, symBinAddr: 0x10000615C, symSize: 0x58 }
  - { offsetInCU: 0xDBEA, offset: 0xDBEA, size: 0x8, addend: 0x0, symName: __ZNSt3__117__compressed_pairIPNS_7complexIfEERNS_9allocatorIS2_EEE6secondB8ue170006Ev, symObjAddr: 0x37B4, symBinAddr: 0x100006234, symSize: 0x28 }
  - { offsetInCU: 0xDC10, offset: 0xDC10, size: 0x8, addend: 0x0, symName: __ZNSt3__122__compressed_pair_elemIRNS_9allocatorINS_7complexIfEEEELi1ELb0EE5__getB8ue170006Ev, symObjAddr: 0x37DC, symBinAddr: 0x10000625C, symSize: 0x18 }
  - { offsetInCU: 0xDC36, offset: 0xDC36, size: 0x8, addend: 0x0, symName: __ZNSt3__117__compressed_pairIPNS_7complexIfEERNS_9allocatorIS2_EEE5firstB8ue170006Ev, symObjAddr: 0x37F4, symBinAddr: 0x100006274, symSize: 0x24 }
  - { offsetInCU: 0xDC5C, offset: 0xDC5C, size: 0x8, addend: 0x0, symName: __ZNSt3__116reverse_iteratorIPNS_7complexIfEEEC1B8ue170006ES3_, symObjAddr: 0x3890, symBinAddr: 0x100006310, symSize: 0x34 }
  - { offsetInCU: 0xDC94, offset: 0xDC94, size: 0x8, addend: 0x0, symName: __ZNKSt3__116reverse_iteratorIPNS_7complexIfEEE4baseB8ue170006Ev, symObjAddr: 0x38C4, symBinAddr: 0x100006344, symSize: 0x18 }
  - { offsetInCU: 0xDCBA, offset: 0xDCBA, size: 0x8, addend: 0x0, symName: __ZNKSt3__16vectorINS_7complexIfEENS_9allocatorIS2_EEE14__annotate_newB8ue170006Em, symObjAddr: 0x3918, symBinAddr: 0x100006398, symSize: 0xAC }
  - { offsetInCU: 0xDD12, offset: 0xDD12, size: 0x8, addend: 0x0, symName: __ZNKSt3__111__move_loopINS_17_ClassicAlgPolicyEEclB8ue170006INS_16reverse_iteratorIPNS_7complexIfEEEES8_S8_EENS_4pairIT_T1_EESA_T0_SB_, symObjAddr: 0x3CB4, symBinAddr: 0x100006734, symSize: 0xA0 }
  - { offsetInCU: 0xDD82, offset: 0xDD82, size: 0x8, addend: 0x0, symName: __ZNSt3__18_IterOpsINS_17_ClassicAlgPolicyEE11__iter_moveB8ue170006IRNS_16reverse_iteratorIPNS_7complexIfEEEEEENS_9enable_ifIXsr12is_referenceIDTdeclsr3stdE7declvalIRT_EEEEE5valueEDTclsr3stdE4movedeclsr3stdE7declvalISC_EEEEE4typeEOSB_, symObjAddr: 0x3EE8, symBinAddr: 0x100006968, symSize: 0x28 }
  - { offsetInCU: 0xDDAE, offset: 0xDDAE, size: 0x8, addend: 0x0, symName: __ZNKSt3__116reverse_iteratorIPNS_7complexIfEEEdeB8ue170006Ev, symObjAddr: 0x3F10, symBinAddr: 0x100006990, symSize: 0x28 }
  - { offsetInCU: 0xDDE2, offset: 0xDDE2, size: 0x8, addend: 0x0, symName: __ZNSt3__116reverse_iteratorIPNS_7complexIfEEEppB8ue170006Ev, symObjAddr: 0x3F38, symBinAddr: 0x1000069B8, symSize: 0x20 }
  - { offsetInCU: 0xDE08, offset: 0xDE08, size: 0x8, addend: 0x0, symName: __ZNSt3__18_IterOpsINS_17_ClassicAlgPolicyEE25__validate_iter_referenceB8ue170006IRNS_16reverse_iteratorIPNS_7complexIfEEEEEEvv, symObjAddr: 0x3F58, symBinAddr: 0x1000069D8, symSize: 0x4 }
  - { offsetInCU: 0xDE26, offset: 0xDE26, size: 0x8, addend: 0x0, symName: __ZNSt3__118__unwrap_iter_implINS_16reverse_iteratorIPNS_7complexIfEEEELb0EE8__unwrapB8ue170006ES5_, symObjAddr: 0x3F5C, symBinAddr: 0x1000069DC, symSize: 0x24 }
  - { offsetInCU: 0xDE4E, offset: 0xDE4E, size: 0x8, addend: 0x0, symName: __ZNSt3__14pairINS_16reverse_iteratorIPNS_7complexIfEEEES5_EC1B8ue170006IS5_S5_LPv0EEEOT_OT0_, symObjAddr: 0x3F80, symBinAddr: 0x100006A00, symSize: 0x3C }
  - { offsetInCU: 0xDEAC, offset: 0xDEAC, size: 0x8, addend: 0x0, symName: __ZNSt3__14pairINS_16reverse_iteratorIPNS_7complexIfEEEES5_EC2B8ue170006IS5_S5_LPv0EEEOT_OT0_, symObjAddr: 0x3FBC, symBinAddr: 0x100006A3C, symSize: 0x34 }
  - { offsetInCU: 0xDF0A, offset: 0xDF0A, size: 0x8, addend: 0x0, symName: __ZNSt3__118__unwrap_iter_implINS_16reverse_iteratorIPNS_7complexIfEEEELb0EE8__rewrapB8ue170006ES5_S5_, symObjAddr: 0x3FF0, symBinAddr: 0x100006A70, symSize: 0x2C }
  - { offsetInCU: 0xDF38, offset: 0xDF38, size: 0x8, addend: 0x0, symName: __ZNSt3__116reverse_iteratorIPNS_7complexIfEEEC2B8ue170006ES3_, symObjAddr: 0x401C, symBinAddr: 0x100006A9C, symSize: 0x28 }
  - { offsetInCU: 0xDF70, offset: 0xDF70, size: 0x8, addend: 0x0, symName: __ZNSt3__114__split_bufferINS_7complexIfEERNS_9allocatorIS2_EEED2Ev, symObjAddr: 0x4044, symBinAddr: 0x100006AC4, symSize: 0x8C }
  - { offsetInCU: 0xDF9C, offset: 0xDF9C, size: 0x8, addend: 0x0, symName: __ZNSt3__114__split_bufferINS_7complexIfEERNS_9allocatorIS2_EEE5clearB8ue170006Ev, symObjAddr: 0x40D0, symBinAddr: 0x100006B50, symSize: 0x28 }
  - { offsetInCU: 0xDFC2, offset: 0xDFC2, size: 0x8, addend: 0x0, symName: __ZNKSt3__114__split_bufferINS_7complexIfEERNS_9allocatorIS2_EEE8capacityB8ue170006Ev, symObjAddr: 0x40F8, symBinAddr: 0x100006B78, symSize: 0x40 }
  - { offsetInCU: 0xDFE8, offset: 0xDFE8, size: 0x8, addend: 0x0, symName: __ZNSt3__114__split_bufferINS_7complexIfEERNS_9allocatorIS2_EEE17__destruct_at_endB8ue170006EPS2_, symObjAddr: 0x4138, symBinAddr: 0x100006BB8, symSize: 0x2C }
  - { offsetInCU: 0xE01C, offset: 0xE01C, size: 0x8, addend: 0x0, symName: __ZNSt3__114__split_bufferINS_7complexIfEERNS_9allocatorIS2_EEE17__destruct_at_endB8ue170006EPS2_NS_17integral_constantIbLb0EEE, symObjAddr: 0x4164, symBinAddr: 0x100006BE4, symSize: 0x80 }
  - { offsetInCU: 0xE05D, offset: 0xE05D, size: 0x8, addend: 0x0, symName: __ZNKSt3__114__split_bufferINS_7complexIfEERNS_9allocatorIS2_EEE9__end_capB8ue170006Ev, symObjAddr: 0x41E4, symBinAddr: 0x100006C64, symSize: 0x28 }
  - { offsetInCU: 0xE083, offset: 0xE083, size: 0x8, addend: 0x0, symName: __ZNKSt3__117__compressed_pairIPNS_7complexIfEERNS_9allocatorIS2_EEE5firstB8ue170006Ev, symObjAddr: 0x420C, symBinAddr: 0x100006C8C, symSize: 0x24 }
  - { offsetInCU: 0xE0F9, offset: 0xE0F9, size: 0x8, addend: 0x0, symName: __ZNSt3__119basic_ostringstreamIcNS_11char_traitsIcEENS_9allocatorIcEEEC1B8ue170006Ev, symObjAddr: 0x4230, symBinAddr: 0x100006CB0, symSize: 0xEC }
  - { offsetInCU: 0xE123, offset: 0xE123, size: 0x8, addend: 0x0, symName: __ZNSt3__18ios_base5flagsB8ue170006Ej, symObjAddr: 0x431C, symBinAddr: 0x100006D9C, symSize: 0x2C }
  - { offsetInCU: 0xE169, offset: 0xE169, size: 0x8, addend: 0x0, symName: __ZNSt3__19basic_iosIcNS_11char_traitsIcEEE5imbueB8ue170006ERKNS_6localeE, symObjAddr: 0x4348, symBinAddr: 0x100006DC8, symSize: 0x104 }
  - { offsetInCU: 0xE1B0, offset: 0xE1B0, size: 0x8, addend: 0x0, symName: __ZNSt3__18ios_base9precisionB8ue170006El, symObjAddr: 0x444C, symBinAddr: 0x100006ECC, symSize: 0x2C }
  - { offsetInCU: 0xE1F6, offset: 0xE1F6, size: 0x8, addend: 0x0, symName: __ZNKSt3__18ios_base9precisionB8ue170006Ev, symObjAddr: 0x4478, symBinAddr: 0x100006EF8, symSize: 0x18 }
  - { offsetInCU: 0xE21E, offset: 0xE21E, size: 0x8, addend: 0x0, symName: __ZNKSt3__119basic_ostringstreamIcNS_11char_traitsIcEENS_9allocatorIcEEE3strB8ue170006Ev, symObjAddr: 0x4510, symBinAddr: 0x100006F90, symSize: 0x30 }
  - { offsetInCU: 0xE249, offset: 0xE249, size: 0x8, addend: 0x0, symName: __ZNSt3__119basic_ostringstreamIcNS_11char_traitsIcEENS_9allocatorIcEEED1Ev, symObjAddr: 0x4540, symBinAddr: 0x100006FC0, symSize: 0x40 }
  - { offsetInCU: 0xE276, offset: 0xE276, size: 0x8, addend: 0x0, symName: __ZNSt3__19basic_iosIcNS_11char_traitsIcEEEC2B8ue170006Ev, symObjAddr: 0x4580, symBinAddr: 0x100007000, symSize: 0x44 }
  - { offsetInCU: 0xE2A0, offset: 0xE2A0, size: 0x8, addend: 0x0, symName: __ZNSt3__113basic_ostreamIcNS_11char_traitsIcEEEC2B8ue170006EPNS_15basic_streambufIcS2_EE, symObjAddr: 0x45C4, symBinAddr: 0x100007044, symSize: 0x60 }
  - { offsetInCU: 0xE2E5, offset: 0xE2E5, size: 0x8, addend: 0x0, symName: __ZNSt3__115basic_stringbufIcNS_11char_traitsIcEENS_9allocatorIcEEEC1B8ue170006Ej, symObjAddr: 0x4624, symBinAddr: 0x1000070A4, symSize: 0x34 }
  - { offsetInCU: 0xE31E, offset: 0xE31E, size: 0x8, addend: 0x0, symName: __ZNSt3__18ios_baseC2B8ue170006Ev, symObjAddr: 0x4658, symBinAddr: 0x1000070D8, symSize: 0x24 }
  - { offsetInCU: 0xE348, offset: 0xE348, size: 0x8, addend: 0x0, symName: __ZNSt3__19basic_iosIcNS_11char_traitsIcEEE4initB8ue170006EPNS_15basic_streambufIcS2_EE, symObjAddr: 0x467C, symBinAddr: 0x1000070FC, symSize: 0x44 }
  - { offsetInCU: 0xE37F, offset: 0xE37F, size: 0x8, addend: 0x0, symName: __ZNSt3__115basic_stringbufIcNS_11char_traitsIcEENS_9allocatorIcEEEC2B8ue170006Ej, symObjAddr: 0x46C0, symBinAddr: 0x100007140, symSize: 0x60 }
  - { offsetInCU: 0xE3B8, offset: 0xE3B8, size: 0x8, addend: 0x0, symName: __ZNSt3__112basic_stringIcNS_11char_traitsIcEENS_9allocatorIcEEEC1B8ue170006Ev, symObjAddr: 0x4720, symBinAddr: 0x1000071A0, symSize: 0x2C }
  - { offsetInCU: 0xE3E2, offset: 0xE3E2, size: 0x8, addend: 0x0, symName: __ZNSt3__112basic_stringIcNS_11char_traitsIcEENS_9allocatorIcEEEC2B8ue170006Ev, symObjAddr: 0x474C, symBinAddr: 0x1000071CC, symSize: 0x48 }
  - { offsetInCU: 0xE40C, offset: 0xE40C, size: 0x8, addend: 0x0, symName: __ZNSt3__112basic_stringIcNS_11char_traitsIcEENS_9allocatorIcEEE14__default_initB8ue170006Ev, symObjAddr: 0x4794, symBinAddr: 0x100007214, symSize: 0x40 }
  - { offsetInCU: 0xE432, offset: 0xE432, size: 0x8, addend: 0x0, symName: __ZNSt3__117__compressed_pairINS_12basic_stringIcNS_11char_traitsIcEENS_9allocatorIcEEE5__repES5_E5firstB8ue170006Ev, symObjAddr: 0x47D4, symBinAddr: 0x100007254, symSize: 0x24 }
  - { offsetInCU: 0xE458, offset: 0xE458, size: 0x8, addend: 0x0, symName: __ZNSt3__122__compressed_pair_elemINS_12basic_stringIcNS_11char_traitsIcEENS_9allocatorIcEEE5__repELi0ELb0EE5__getB8ue170006Ev, symObjAddr: 0x47F8, symBinAddr: 0x100007278, symSize: 0x14 }
  - { offsetInCU: 0xE47E, offset: 0xE47E, size: 0x8, addend: 0x0, symName: __ZNSt3__115basic_streambufIcNS_11char_traitsIcEEE8pubimbueB8ue170006ERKNS_6localeE, symObjAddr: 0x480C, symBinAddr: 0x10000728C, symSize: 0xA0 }
  - { offsetInCU: 0xE4C1, offset: 0xE4C1, size: 0x8, addend: 0x0, symName: __ZNKSt3__112basic_stringIcNS_11char_traitsIcEENS_9allocatorIcEEE4sizeB8ue170006Ev, symObjAddr: 0x48AC, symBinAddr: 0x10000732C, symSize: 0x54 }
  - { offsetInCU: 0xE4E7, offset: 0xE4E7, size: 0x8, addend: 0x0, symName: __ZNKSt3__112basic_stringIcNS_11char_traitsIcEENS_9allocatorIcEEE15__get_long_sizeB8ue170006Ev, symObjAddr: 0x4900, symBinAddr: 0x100007380, symSize: 0x28 }
  - { offsetInCU: 0xE50D, offset: 0xE50D, size: 0x8, addend: 0x0, symName: __ZNKSt3__112basic_stringIcNS_11char_traitsIcEENS_9allocatorIcEEE16__get_short_sizeB8ue170006Ev, symObjAddr: 0x4928, symBinAddr: 0x1000073A8, symSize: 0x34 }
  - { offsetInCU: 0xE533, offset: 0xE533, size: 0x8, addend: 0x0, symName: __ZNSt3__119basic_ostringstreamIcNS_11char_traitsIcEENS_9allocatorIcEEED2Ev, symObjAddr: 0x495C, symBinAddr: 0x1000073DC, symSize: 0x64 }
  - { offsetInCU: 0xE56D, offset: 0xE56D, size: 0x8, addend: 0x0, symName: __ZTv0_n24_NSt3__119basic_ostringstreamIcNS_11char_traitsIcEENS_9allocatorIcEEED1Ev, symObjAddr: 0x49C0, symBinAddr: 0x100007440, symSize: 0x28 }
  - { offsetInCU: 0xE589, offset: 0xE589, size: 0x8, addend: 0x0, symName: __ZNSt3__115basic_stringbufIcNS_11char_traitsIcEENS_9allocatorIcEEED1Ev, symObjAddr: 0x49E8, symBinAddr: 0x100007468, symSize: 0x2C }
  - { offsetInCU: 0xE5B6, offset: 0xE5B6, size: 0x8, addend: 0x0, symName: __ZNSt3__115basic_stringbufIcNS_11char_traitsIcEENS_9allocatorIcEEED2Ev, symObjAddr: 0x4A14, symBinAddr: 0x100007494, symSize: 0x48 }
  - { offsetInCU: 0xE5E3, offset: 0xE5E3, size: 0x8, addend: 0x0, symName: __ZNKSt3__19basic_iosIcNS_11char_traitsIcEEE4failB8ue170006Ev, symObjAddr: 0x4AF4, symBinAddr: 0x100007574, symSize: 0x28 }
  - { offsetInCU: 0xE609, offset: 0xE609, size: 0x8, addend: 0x0, symName: __ZNSt3__115basic_streambufIcNS_11char_traitsIcEEE10pubseekoffB8ue170006ExNS_8ios_base7seekdirEj, symObjAddr: 0x4B1C, symBinAddr: 0x10000759C, symSize: 0x44 }
  - { offsetInCU: 0xE659, offset: 0xE659, size: 0x8, addend: 0x0, symName: __ZNKSt3__18ios_base4failB8ue170006Ev, symObjAddr: 0x4B60, symBinAddr: 0x1000075E0, symSize: 0x28 }
  - { offsetInCU: 0xE681, offset: 0xE681, size: 0x8, addend: 0x0, symName: __ZNSt3__115basic_streambufIcNS_11char_traitsIcEEE10pubseekposB8ue170006ENS_4fposI11__mbstate_tEEj, symObjAddr: 0x4BD0, symBinAddr: 0x100007650, symSize: 0x94 }
  - { offsetInCU: 0xE6C4, offset: 0xE6C4, size: 0x8, addend: 0x0, symName: __ZNSt3__14fposI11__mbstate_tEC2B8ue170006Ex, symObjAddr: 0x4C64, symBinAddr: 0x1000076E4, symSize: 0x40 }
...
